target datalayout = "e-m:e-p270:32:32-p271:32:32-p272:64:64-i64:64-i128:128-f80:128-n8:16:32:64-S128"
target triple = "x86_64-pc-linux-gnu"

%struct.child_info = type { i32, i32, ptr, i64, ptr }

@.str.13 = private unnamed_addr constant [10 x i8] c"seteuid()\00", align 1

; Function Attrs: nounwind sspstrong uwtable
define internal i32 @drop_privilege(ptr noundef %0, i64 noundef %1) #0 {
  %3 = alloca i32, align 4
  %4 = alloca ptr, align 8
  %5 = alloca i64, align 8
  store ptr %0, ptr %4, align 8, !tbaa !20
  store i64 %1, ptr %5, align 8, !tbaa !6
  %6 = call i32 @getuid() #15
  %7 = call i32 @seteuid(i32 noundef %6) #15
  %8 = icmp ne i32 %7, 0
  br i1 %8, label %9, label %15

9:                                                ; preds = %2
  br label %10

10:                                               ; preds = %9
  %11 = load ptr, ptr %4, align 8, !tbaa !20
  %12 = load i64, ptr %5, align 8, !tbaa !6
  %13 = call i64 @strlcpy(ptr noundef %11, ptr noundef @.str.13, i64 noundef %12)
  store i32 -1, ptr %3, align 4
  br label %16

14:                                               ; No predecessors!
  br label %15

15:                                               ; preds = %14, %2
  store i32 0, ptr %3, align 4
  br label %16

16:                                               ; preds = %15, %10
  %17 = load i32, ptr %3, align 4
  ret i32 %17
}

; Function Attrs: nounwind sspstrong uwtable
define internal i32 @obtain_ctty(i32 noundef %0, i32 noundef %1, ptr noundef %2, ptr noundef %3, i64 noundef %4) #0 {
  %6 = alloca i32, align 4
  %7 = alloca i32, align 4
  %8 = alloca ptr, align 8
  %9 = alloca ptr, align 8
  %10 = alloca i64, align 8
  store i32 %0, ptr %6, align 4, !tbaa !10
  store i32 %1, ptr %7, align 4, !tbaa !10
  store ptr %2, ptr %8, align 8, !tbaa !20
  store ptr %3, ptr %9, align 8, !tbaa !20
  store i64 %4, ptr %10, align 8, !tbaa !6
  %11 = load i32, ptr %6, align 4, !tbaa !10
  %12 = call i32 @close(i32 noundef %11)
  %13 = load i32, ptr %7, align 4, !tbaa !10
  %14 = call i32 (i32, i64, ...) @ioctl(i32 noundef %13, i64 noundef 21518, ptr noundef null) #15
  %15 = load i32, ptr %7, align 4, !tbaa !10
  %16 = call i32 @dup2(i32 noundef %15, i32 noundef 0) #15
  %17 = load i32, ptr %7, align 4, !tbaa !10
  %18 = call i32 @dup2(i32 noundef %17, i32 noundef 1) #15
  %19 = load i32, ptr %7, align 4, !tbaa !10
  %20 = call i32 @dup2(i32 noundef %19, i32 noundef 2) #15
  %21 = load i32, ptr %7, align 4, !tbaa !10
  %22 = icmp sgt i32 %21, 2
  br i1 %22, label %23, label %26

23:                                               ; preds = %5
  %24 = load i32, ptr %7, align 4, !tbaa !10
  %25 = call i32 @close(i32 noundef %24)
  br label %26

26:                                               ; preds = %23, %5
  ret i32 0
}

; Function Attrs: nounwind sspstrong uwtable
define internal i32 @start_new_session(ptr noundef %0, i64 noundef %1) #0 {
  %3 = alloca ptr, align 8
  %4 = alloca i64, align 8
  store ptr %0, ptr %3, align 8, !tbaa !20
  store i64 %1, ptr %4, align 8, !tbaa !6
  %5 = call i32 @setsid() #15
  ret i32 0
}

; Function Attrs: nounwind sspstrong uwtable
define internal i32 @chfunc(ptr noundef %0, ptr noundef %1, i64 noundef %2) #0 {
  %4 = alloca i32, align 4
  %5 = alloca ptr, align 8
  %6 = alloca ptr, align 8
  %7 = alloca i64, align 8
  %8 = alloca ptr, align 8
  %9 = alloca i32, align 4
  %10 = alloca i32, align 4
  %11 = alloca ptr, align 8
  %12 = alloca i32, align 4
  store ptr %0, ptr %5, align 8, !tbaa !37
  store ptr %1, ptr %6, align 8, !tbaa !20
  store i64 %2, ptr %7, align 8, !tbaa !6
  call void @llvm.lifetime.start.p0(i64 8, ptr %8) #15
  %13 = load ptr, ptr %5, align 8, !tbaa !37
  store ptr %13, ptr %8, align 8, !tbaa !38
  call void @llvm.lifetime.start.p0(i64 4, ptr %9) #15
  %14 = load ptr, ptr %8, align 8, !tbaa !38
  %15 = getelementptr inbounds nuw %struct.child_info, ptr %14, i32 0, i32 0
  %16 = load i32, ptr %15, align 8, !tbaa !30
  store i32 %16, ptr %9, align 4, !tbaa !10
  call void @llvm.lifetime.start.p0(i64 4, ptr %10) #15
  %17 = load ptr, ptr %8, align 8, !tbaa !38
  %18 = getelementptr inbounds nuw %struct.child_info, ptr %17, i32 0, i32 1
  %19 = load i32, ptr %18, align 4, !tbaa !31
  store i32 %19, ptr %10, align 4, !tbaa !10
  call void @llvm.lifetime.start.p0(i64 8, ptr %11) #15
  %20 = load ptr, ptr %8, align 8, !tbaa !38
  %21 = getelementptr inbounds nuw %struct.child_info, ptr %20, i32 0, i32 2
  %22 = load ptr, ptr %21, align 8, !tbaa !32
  store ptr %22, ptr %11, align 8, !tbaa !20
  %23 = load ptr, ptr %6, align 8, !tbaa !20
  %24 = load i64, ptr %7, align 8, !tbaa !6
  %25 = call i32 @start_new_session(ptr noundef %23, i64 noundef %24)
  %26 = icmp ne i32 %25, 0
  br i1 %26, label %27, label %28

27:                                               ; preds = %3
  store i32 -1, ptr %4, align 4
  store i32 1, ptr %12, align 4
  br label %50

28:                                               ; preds = %3
  %29 = load i32, ptr %9, align 4, !tbaa !10
  %30 = load i32, ptr %10, align 4, !tbaa !10
  %31 = load ptr, ptr %11, align 8, !tbaa !20
  %32 = load ptr, ptr %6, align 8, !tbaa !20
  %33 = load i64, ptr %7, align 8, !tbaa !6
  %34 = call i32 @obtain_ctty(i32 noundef %29, i32 noundef %30, ptr noundef %31, ptr noundef %32, i64 noundef %33)
  %35 = icmp ne i32 %34, 0
  br i1 %35, label %36, label %37

36:                                               ; preds = %28
  store i32 -1, ptr %4, align 4
  store i32 1, ptr %12, align 4
  br label %50

37:                                               ; preds = %28
  %38 = load ptr, ptr %6, align 8, !tbaa !20
  %39 = load i64, ptr %7, align 8, !tbaa !6
  %40 = call i32 @drop_privilege(ptr noundef %38, i64 noundef %39)
  %41 = icmp ne i32 %40, 0
  br i1 %41, label %42, label %43

42:                                               ; preds = %37
  store i32 -1, ptr %4, align 4
  store i32 1, ptr %12, align 4
  br label %50

43:                                               ; preds = %37
  %44 = load ptr, ptr %8, align 8, !tbaa !38
  %45 = getelementptr inbounds nuw %struct.child_info, ptr %44, i32 0, i32 4
  %46 = load ptr, ptr %45, align 8, !tbaa !29
  %47 = load ptr, ptr %6, align 8, !tbaa !20
  %48 = load i64, ptr %7, align 8, !tbaa !6
  %49 = call i32 @rb_exec_async_signal_safe(ptr noundef %46, ptr noundef %47, i64 noundef %48)
  store i32 %49, ptr %4, align 4
  store i32 1, ptr %12, align 4
  br label %50

50:                                               ; preds = %43, %42, %36, %27
  call void @llvm.lifetime.end.p0(i64 8, ptr %11) #15
  call void @llvm.lifetime.end.p0(i64 4, ptr %10) #15
  call void @llvm.lifetime.end.p0(i64 4, ptr %9) #15
  call void @llvm.lifetime.end.p0(i64 8, ptr %8) #15
  %51 = load i32, ptr %4, align 4
  ret i32 %51
}