; Function Attrs: nounwind sspstrong uwtable
define internal i32 @chfunc(ptr noundef readonly captures(none) %0, ptr noundef %1, i64 noundef %2) #0 {
  %4 = load i32, ptr %0, align 8, !tbaa !20
  %5 = getelementptr inbounds nuw i8, ptr %0, i64 4
  %6 = load i32, ptr %5, align 4, !tbaa !21
  %7 = tail call i32 @setsid() #10
  %8 = tail call i32 @close(i32 noundef %4) #10
  %9 = tail call i32 (i32, i64, ...) @ioctl(i32 noundef %6, i64 noundef 21518, ptr noundef null) #10
  %10 = tail call i32 @dup2(i32 noundef %6, i32 noundef 0) #10
  %11 = tail call i32 @dup2(i32 noundef %6, i32 noundef 1) #10
  %12 = tail call i32 @dup2(i32 noundef %6, i32 noundef 2) #10
  %13 = icmp sgt i32 %6, 2
  br i1 %13, label %14, label %obtain_ctty.exit

14:                                               ; preds = %3
  %15 = tail call i32 @close(i32 noundef %6) #10
  br label %obtain_ctty.exit

obtain_ctty.exit:                                 ; preds = %3, %14
  %16 = tail call i32 @getuid() #10
  %17 = tail call i32 @seteuid(i32 noundef %16) #10
  %.not.i = icmp eq i32 %17, 0
  br i1 %.not.i, label %19, label %drop_privilege.exit

drop_privilege.exit:                              ; preds = %obtain_ctty.exit
  %18 = tail call i64 @strlcpy(ptr noundef %1, ptr noundef nonnull dereferenceable(1) @.str.13, i64 noundef %2) #10
  br label %23

19:                                               ; preds = %obtain_ctty.exit
  %20 = getelementptr inbounds nuw i8, ptr %0, i64 24
  %21 = load ptr, ptr %20, align 8, !tbaa !19
  %22 = tail call i32 @rb_exec_async_signal_safe(ptr noundef %21, ptr noundef %1, i64 noundef %2) #10
  br label %23

23:                                               ; preds = %drop_privilege.exit, %19
  %.0 = phi i32 [ %22, %19 ], [ -1, %drop_privilege.exit ]
  ret i32 %.0
}